target datalayout = "e-m:e-p270:32:32-p271:32:32-p272:64:64-i64:64-i128:128-f80:128-n8:16:32:64-S128"
target triple = "x86_64-pc-linux-gnu"

%"class.llvm::Register" = type { i32 }
%"class.llvm::MachineOperand" = type { i32, %union.anon, ptr, %"union.llvm::MachineOperand::ContentsUnion" }
%union.anon = type { i32 }
%"union.llvm::MachineOperand::ContentsUnion" = type { %"class.llvm::ArrayRef" }
%"class.llvm::ArrayRef" = type { ptr, i64 }
%"class.llvm::MachineInstr" = type <{ %"class.llvm::ilist_node_with_parent", ptr, ptr, ptr, [3 x i8], %"class.llvm::ArrayRecycler<llvm::MachineOperand>::Capacity", i32, %"class.llvm::PointerSumType", %"class.llvm::DebugLoc", i32, i16, [2 x i8] }>
%"class.llvm::ilist_node_with_parent" = type { %"class.llvm::ilist_node" }
%"class.llvm::ilist_node" = type { %"class.llvm::ilist_node_impl" }
%"class.llvm::ilist_node_impl" = type { %"class.llvm::ilist_node_base" }
%"class.llvm::ilist_node_base" = type { %"class.llvm::ilist_detail::node_base_prevnext" }
%"class.llvm::ilist_detail::node_base_prevnext" = type { %"class.llvm::PointerIntPair.75", ptr }
%"class.llvm::PointerIntPair.75" = type { %"struct.llvm::detail::PunnedPointer.76" }
%"struct.llvm::detail::PunnedPointer.76" = type { [8 x i8] }
%"class.llvm::ArrayRecycler<llvm::MachineOperand>::Capacity" = type { i8 }
%"class.llvm::PointerSumType" = type { %"union.llvm::PointerSumType<llvm::MachineInstr::ExtraInfoInlineKinds, llvm::PointerSumTypeMember<0, llvm::MachineMemOperand *>, llvm::PointerSumTypeMember<1, llvm::MCSymbol *>, llvm::PointerSumTypeMember<2, llvm::MCSymbol *>, llvm::PointerSumTypeMember<3, llvm::MachineInstr::ExtraInfo *>>::StorageT" }
%"union.llvm::PointerSumType<llvm::MachineInstr::ExtraInfoInlineKinds, llvm::PointerSumTypeMember<0, llvm::MachineMemOperand *>, llvm::PointerSumTypeMember<1, llvm::MCSymbol *>, llvm::PointerSumTypeMember<2, llvm::MCSymbol *>, llvm::PointerSumTypeMember<3, llvm::MachineInstr::ExtraInfo *>>::StorageT" = type { i64 }
%"class.llvm::DebugLoc" = type { %"class.llvm::TypedTrackingMDRef" }
%"class.llvm::TypedTrackingMDRef" = type { %"class.llvm::TrackingMDRef" }
%"class.llvm::TrackingMDRef" = type { ptr }

; Function Attrs: mustprogress nounwind uwtable
define linkonce_odr hidden void @_ZN4llvm8RegisterC2Ej(ptr noundef nonnull align 4 dereferenceable(4) %0, i32 noundef %1) unnamed_addr #0 comdat align 2 {
  %3 = alloca ptr, align 8
  %4 = alloca i32, align 4
  store ptr %0, ptr %3, align 8
  store i32 %1, ptr %4, align 4
  %5 = load ptr, ptr %3, align 8
  %6 = getelementptr inbounds nuw %"class.llvm::Register", ptr %5, i32 0, i32 0
  %7 = load i32, ptr %4, align 4
  store i32 %7, ptr %6, align 4
  ret void
}

; Function Attrs: mustprogress nounwind uwtable
define linkonce_odr hidden noundef nonnull align 8 dereferenceable(32) ptr @_ZN4llvm12MachineInstr10getOperandEj(ptr noundef nonnull align 8 dereferenceable(70) %0, i32 noundef %1) #0 comdat align 2 {
  %3 = alloca ptr, align 8
  %4 = alloca i32, align 4
  store ptr %0, ptr %3, align 8
  store i32 %1, ptr %4, align 4
  %5 = load ptr, ptr %3, align 8
  %6 = getelementptr inbounds nuw %"class.llvm::MachineInstr", ptr %5, i32 0, i32 3
  %7 = load ptr, ptr %6, align 8
  %8 = load i32, ptr %4, align 4
  %9 = zext i32 %8 to i64
  %10 = getelementptr inbounds %"class.llvm::MachineOperand", ptr %7, i64 %9
  ret ptr %10
}

; Function Attrs: mustprogress nounwind uwtable
define linkonce_odr hidden noundef i32 @_ZNK4llvm12MachineInstr9getOpcodeEv(ptr noundef nonnull align 8 dereferenceable(70) %0) #0 comdat align 2 {
  %2 = alloca ptr, align 8
  store ptr %0, ptr %2, align 8
  %3 = load ptr, ptr %2, align 8
  %4 = getelementptr inbounds nuw %"class.llvm::MachineInstr", ptr %3, i32 0, i32 10
  %5 = load i16, ptr %4, align 4
  %6 = zext i16 %5 to i32
  ret i32 %6
}

; Function Attrs: mustprogress nounwind uwtable
define linkonce_odr hidden i32 @_ZNK4llvm14MachineOperand6getRegEv(ptr noundef nonnull align 8 dereferenceable(32) %0) #0 comdat align 2 {
  %2 = alloca %"class.llvm::Register", align 4
  %3 = alloca ptr, align 8
  store ptr %0, ptr %3, align 8
  %4 = load ptr, ptr %3, align 8
  %5 = getelementptr inbounds nuw %"class.llvm::MachineOperand", ptr %4, i32 0, i32 1
  %6 = load i32, ptr %5, align 4
  call void @_ZN4llvm8RegisterC2Ej(ptr noundef nonnull align 4 dereferenceable(4) %2, i32 noundef %6)
  %7 = getelementptr inbounds nuw %"class.llvm::Register", ptr %2, i32 0, i32 0
  %8 = load i32, ptr %7, align 4
  ret i32 %8
}

; Function Attrs: mustprogress nounwind uwtable
define linkonce_odr hidden noundef zeroext i1 @_ZNK4llvm14MachineOperand5isRegEv(ptr noundef nonnull align 8 dereferenceable(32) %0) #0 comdat align 2 {
  %2 = alloca ptr, align 8
  store ptr %0, ptr %2, align 8
  %3 = load ptr, ptr %2, align 8
  %4 = load i32, ptr %3, align 8
  %5 = and i32 %4, 255
  %6 = icmp eq i32 %5, 0
  ret i1 %6
}

; Function Attrs: mustprogress nounwind uwtable
define dso_local noundef zeroext i1 @_ZNK4llvm20GIMatchTableExecutor24isBaseWithConstantOffsetERKNS_14MachineOperandERKNS_19MachineRegisterInfoE(ptr noundef nonnull align 8 dereferenceable(56) %0, ptr noundef nonnull align 8 dereferenceable(32) %1, ptr noundef nonnull align 8 dereferenceable(512) %2) #0 align 2 {
  %4 = alloca i1, align 1
  %5 = alloca ptr, align 8
  %6 = alloca ptr, align 8
  %7 = alloca ptr, align 8
  %8 = alloca ptr, align 8
  %9 = alloca %"class.llvm::Register", align 4
  %10 = alloca ptr, align 8
  %11 = alloca ptr, align 8
  %12 = alloca %"class.llvm::Register", align 4
  store ptr %0, ptr %5, align 8
  store ptr %1, ptr %6, align 8
  store ptr %2, ptr %7, align 8
  %13 = load ptr, ptr %6, align 8
  %14 = call noundef zeroext i1 @_ZNK4llvm14MachineOperand5isRegEv(ptr noundef nonnull align 8 dereferenceable(32) %13)
  br i1 %14, label %16, label %15

15:                                               ; preds = %3
  store i1 false, ptr %4, align 1
  br label %43

16:                                               ; preds = %3
  %17 = load ptr, ptr %7, align 8
  %18 = load ptr, ptr %6, align 8
  %19 = call i32 @_ZNK4llvm14MachineOperand6getRegEv(ptr noundef nonnull align 8 dereferenceable(32) %18)
  %20 = getelementptr inbounds nuw %"class.llvm::Register", ptr %9, i32 0, i32 0
  store i32 %19, ptr %20, align 4
  %21 = getelementptr inbounds nuw %"class.llvm::Register", ptr %9, i32 0, i32 0
  %22 = load i32, ptr %21, align 4
  %23 = call noundef ptr @_ZNK4llvm19MachineRegisterInfo10getVRegDefENS_8RegisterE(ptr noundef nonnull align 8 dereferenceable(512) %17, i32 %22)
  store ptr %23, ptr %8, align 8
  %24 = load ptr, ptr %8, align 8
  %25 = call noundef i32 @_ZNK4llvm12MachineInstr9getOpcodeEv(ptr noundef nonnull align 8 dereferenceable(70) %24)
  %26 = icmp ne i32 %25, 213
  br i1 %26, label %27, label %28

27:                                               ; preds = %16
  store i1 false, ptr %4, align 1
  br label %43

28:                                               ; preds = %16
  %29 = load ptr, ptr %8, align 8
  %30 = call noundef nonnull align 8 dereferenceable(32) ptr @_ZN4llvm12MachineInstr10getOperandEj(ptr noundef nonnull align 8 dereferenceable(70) %29, i32 noundef 2)
  store ptr %30, ptr %10, align 8
  %31 = load ptr, ptr %7, align 8
  %32 = load ptr, ptr %10, align 8
  %33 = call i32 @_ZNK4llvm14MachineOperand6getRegEv(ptr noundef nonnull align 8 dereferenceable(32) %32)
  %34 = getelementptr inbounds nuw %"class.llvm::Register", ptr %12, i32 0, i32 0
  store i32 %33, ptr %34, align 4
  %35 = getelementptr inbounds nuw %"class.llvm::Register", ptr %12, i32 0, i32 0
  %36 = load i32, ptr %35, align 4
  %37 = call noundef ptr @_ZNK4llvm19MachineRegisterInfo10getVRegDefENS_8RegisterE(ptr noundef nonnull align 8 dereferenceable(512) %31, i32 %36)
  store ptr %37, ptr %11, align 8
  %38 = load ptr, ptr %11, align 8
  %39 = call noundef i32 @_ZNK4llvm12MachineInstr9getOpcodeEv(ptr noundef nonnull align 8 dereferenceable(70) %38)
  %40 = icmp ne i32 %39, 128
  br i1 %40, label %41, label %42

41:                                               ; preds = %28
  store i1 false, ptr %4, align 1
  br label %43

42:                                               ; preds = %28
  store i1 true, ptr %4, align 1
  br label %43

43:                                               ; preds = %42, %41, %27, %15
  %44 = load i1, ptr %4, align 1
  ret i1 %44
}