; Function Attrs: mustprogress nounwind uwtable
define dso_local noundef zeroext i1 @_ZNK4llvm20GIMatchTableExecutor24isBaseWithConstantOffsetERKNS_14MachineOperandERKNS_19MachineRegisterInfoE(ptr noundef nonnull readnone align 8 captures(none) dereferenceable(56) %0, ptr noundef nonnull readonly align 8 captures(none) dereferenceable(32) %1, ptr noundef nonnull align 8 dereferenceable(512) %2) local_unnamed_addr #0 align 2 {
  %4 = load i32, ptr %1, align 8
  %5 = and i32 %4, 255
  %6 = icmp eq i32 %5, 0
  br i1 %6, label %7, label %21

7:                                                ; preds = %3
  %8 = getelementptr inbounds nuw i8, ptr %1, i64 4
  %9 = load i32, ptr %8, align 4
  %10 = tail call noundef ptr @_ZNK4llvm19MachineRegisterInfo10getVRegDefENS_8RegisterE(ptr noundef nonnull align 8 dereferenceable(512) %2, i32 %9) #8
  %11 = getelementptr inbounds nuw i8, ptr %10, i64 68
  %12 = load i16, ptr %11, align 4
  %.not = icmp eq i16 %12, 213
  br i1 %.not, label %13, label %21

13:                                               ; preds = %7
  %14 = getelementptr inbounds nuw i8, ptr %10, i64 32
  %15 = load ptr, ptr %14, align 8
  %16 = getelementptr inbounds nuw i8, ptr %15, i64 68
  %17 = load i32, ptr %16, align 4
  %18 = tail call noundef ptr @_ZNK4llvm19MachineRegisterInfo10getVRegDefENS_8RegisterE(ptr noundef nonnull align 8 dereferenceable(512) %2, i32 %17) #8
  %19 = getelementptr inbounds nuw i8, ptr %18, i64 68
  %20 = load i16, ptr %19, align 4
  %.not10 = icmp eq i16 %20, 128
  br label %21

21:                                               ; preds = %13, %7, %3
  %.0 = phi i1 [ false, %3 ], [ false, %7 ], [ %.not10, %13 ]
  ret i1 %.0
}